target datalayout = "e-m:e-p270:32:32-p271:32:32-p272:64:64-i64:64-i128:128-f80:128-n8:16:32:64-S128"
target triple = "x86_64-pc-linux-gnu"

%"struct.faiss::DistanceComputer" = type { ptr }
%"struct.faiss::HammingComputerDefault" = type { ptr, i32, i32 }
%"struct.faiss::(anonymous namespace)::FlatHammingDis.30" = type { %"struct.faiss::DistanceComputer", i32, ptr, i64, %"struct.faiss::HammingComputerDefault" }

; Function Attrs: mustprogress nounwind uwtable
define internal noundef float @_ZN5faiss12_GLOBAL__N_114FlatHammingDisINS_22HammingComputerDefaultEEclEl(ptr noundef nonnull align 8 dereferenceable(48) %0, i64 noundef %1) unnamed_addr #0 align 2 {
  %3 = alloca ptr, align 8
  %4 = alloca i64, align 8
  store ptr %0, ptr %3, align 8
  store i64 %1, ptr %4, align 8
  %5 = load ptr, ptr %3, align 8
  %6 = getelementptr inbounds %"struct.faiss::(anonymous namespace)::FlatHammingDis.30", ptr %5, i32 0, i32 3
  %7 = load i64, ptr %6, align 8
  %8 = add i64 %7, 1
  store i64 %8, ptr %6, align 8
  %9 = getelementptr inbounds %"struct.faiss::(anonymous namespace)::FlatHammingDis.30", ptr %5, i32 0, i32 4
  %10 = getelementptr inbounds %"struct.faiss::(anonymous namespace)::FlatHammingDis.30", ptr %5, i32 0, i32 2
  %11 = load ptr, ptr %10, align 8
  %12 = load i64, ptr %4, align 8
  %13 = getelementptr inbounds %"struct.faiss::(anonymous namespace)::FlatHammingDis.30", ptr %5, i32 0, i32 1
  %14 = load i32, ptr %13, align 8
  %15 = sext i32 %14 to i64
  %16 = mul nsw i64 %12, %15
  %17 = getelementptr inbounds i8, ptr %11, i64 %16
  %18 = call noundef i32 @_ZNK5faiss22HammingComputerDefault7hammingEPKh(ptr noundef nonnull align 8 dereferenceable(16) %9, ptr noundef %17)
  %19 = sitofp i32 %18 to float
  ret float %19
}