; Function Attrs: mustprogress nounwind uwtable
define internal noundef float @_ZN5faiss12_GLOBAL__N_114FlatHammingDisINS_22HammingComputerDefaultEEclEl(ptr noundef nonnull align 8 dereferenceable(48) %0, i64 noundef %1) unnamed_addr #0 align 2 {
  %3 = getelementptr inbounds i8, ptr %0, i64 24
  %4 = load i64, ptr %3, align 8
  %5 = add i64 %4, 1
  store i64 %5, ptr %3, align 8
  %6 = getelementptr inbounds i8, ptr %0, i64 32
  %7 = getelementptr inbounds i8, ptr %0, i64 16
  %8 = load ptr, ptr %7, align 8
  %9 = getelementptr inbounds i8, ptr %0, i64 8
  %10 = load i32, ptr %9, align 8
  %11 = sext i32 %10 to i64
  %12 = mul nsw i64 %11, %1
  %13 = getelementptr inbounds i8, ptr %8, i64 %12
  %14 = tail call noundef i32 @_ZNK5faiss22HammingComputerDefault7hammingEPKh(ptr noundef nonnull align 8 dereferenceable(16) %6, ptr noundef %13)
  %15 = sitofp i32 %14 to float
  ret float %15
}